target datalayout = "e-m:e-p270:32:32-p271:32:32-p272:64:64-i64:64-i128:128-f80:128-n8:16:32:64-S128"
target triple = "x86_64-pc-linux-gnu"

%struct.prov_cipher_ctx_st = type { [16 x i8], [16 x i8], [16 x i8], ptr, %union.anon, i32, i64, i64, i64, i64, i32, i8, i32, ptr, i32, i64, i32, i64, i32, ptr, ptr, ptr }
%union.anon = type { ptr }
%struct.prov_tdes_ctx_st = type { %struct.prov_cipher_ctx_st, %union.anon.0, %union.anon.2 }
%union.anon.0 = type { double, [376 x i8] }
%union.anon.2 = type { ptr }
%struct.DES_ks = type { [16 x %union.anon.1] }
%union.anon.1 = type { [2 x i32] }

; Function Attrs: nounwind uwtable
define internal i32 @ossl_cipher_hw_tdes_cfb1(ptr noundef %0, ptr noundef %1, ptr noundef %2, i64 noundef %3) #0 {
  %5 = alloca ptr, align 8
  %6 = alloca ptr, align 8
  %7 = alloca ptr, align 8
  %8 = alloca i64, align 8
  %9 = alloca ptr, align 8
  %10 = alloca i64, align 8
  %11 = alloca [1 x i8], align 1
  %12 = alloca [1 x i8], align 1
  store ptr %0, ptr %5, align 8, !tbaa !3
  store ptr %1, ptr %6, align 8, !tbaa !8
  store ptr %2, ptr %7, align 8, !tbaa !8
  store i64 %3, ptr %8, align 8, !tbaa !10
  call void @llvm.lifetime.start.p0(i64 8, ptr %9) #5
  %13 = load ptr, ptr %5, align 8, !tbaa !3
  store ptr %13, ptr %9, align 8, !tbaa !12
  call void @llvm.lifetime.start.p0(i64 8, ptr %10) #5
  call void @llvm.lifetime.start.p0(i64 1, ptr %11) #5
  call void @llvm.lifetime.start.p0(i64 1, ptr %12) #5
  call void @llvm.memset.p0.i64(ptr align 1 %12, i8 0, i64 1, i1 false)
  %14 = load ptr, ptr %5, align 8, !tbaa !3
  %15 = getelementptr inbounds nuw %struct.prov_cipher_ctx_st, ptr %14, i32 0, i32 11
  %16 = load i8, ptr %15, align 4
  %17 = lshr i8 %16, 7
  %18 = zext i8 %17 to i32
  %19 = icmp eq i32 %18, 0
  br i1 %19, label %20, label %23

20:                                               ; preds = %4
  %21 = load i64, ptr %8, align 8, !tbaa !10
  %22 = mul i64 %21, 8
  store i64 %22, ptr %8, align 8, !tbaa !10
  br label %23

23:                                               ; preds = %20, %4
  store i64 0, ptr %10, align 8, !tbaa !10
  br label %24

24:                                               ; preds = %91, %23
  %25 = load i64, ptr %10, align 8, !tbaa !10
  %26 = load i64, ptr %8, align 8, !tbaa !10
  %27 = icmp ult i64 %25, %26
  br i1 %27, label %28, label %94

28:                                               ; preds = %24
  %29 = load ptr, ptr %7, align 8, !tbaa !8
  %30 = load i64, ptr %10, align 8, !tbaa !10
  %31 = udiv i64 %30, 8
  %32 = getelementptr inbounds nuw i8, ptr %29, i64 %31
  %33 = load i8, ptr %32, align 1, !tbaa !23
  %34 = zext i8 %33 to i32
  %35 = load i64, ptr %10, align 8, !tbaa !10
  %36 = urem i64 %35, 8
  %37 = sub i64 7, %36
  %38 = trunc i64 %37 to i32
  %39 = shl i32 1, %38
  %40 = and i32 %34, %39
  %41 = icmp ne i32 %40, 0
  %42 = select i1 %41, i32 128, i32 0
  %43 = trunc i32 %42 to i8
  %44 = getelementptr inbounds [1 x i8], ptr %11, i64 0, i64 0
  store i8 %43, ptr %44, align 1, !tbaa !23
  %45 = getelementptr inbounds [1 x i8], ptr %11, i64 0, i64 0
  %46 = getelementptr inbounds [1 x i8], ptr %12, i64 0, i64 0
  %47 = load ptr, ptr %9, align 8, !tbaa !12
  %48 = getelementptr inbounds nuw %struct.prov_tdes_ctx_st, ptr %47, i32 0, i32 1
  %49 = getelementptr inbounds [3 x %struct.DES_ks], ptr %48, i64 0, i64 0
  %50 = load ptr, ptr %9, align 8, !tbaa !12
  %51 = getelementptr inbounds nuw %struct.prov_tdes_ctx_st, ptr %50, i32 0, i32 1
  %52 = getelementptr inbounds [3 x %struct.DES_ks], ptr %51, i64 0, i64 1
  %53 = load ptr, ptr %9, align 8, !tbaa !12
  %54 = getelementptr inbounds nuw %struct.prov_tdes_ctx_st, ptr %53, i32 0, i32 1
  %55 = getelementptr inbounds [3 x %struct.DES_ks], ptr %54, i64 0, i64 2
  %56 = load ptr, ptr %5, align 8, !tbaa !3
  %57 = getelementptr inbounds nuw %struct.prov_cipher_ctx_st, ptr %56, i32 0, i32 2
  %58 = getelementptr inbounds [16 x i8], ptr %57, i64 0, i64 0
  %59 = load ptr, ptr %5, align 8, !tbaa !3
  %60 = getelementptr inbounds nuw %struct.prov_cipher_ctx_st, ptr %59, i32 0, i32 11
  %61 = load i8, ptr %60, align 4
  %62 = lshr i8 %61, 1
  %63 = and i8 %62, 1
  %64 = zext i8 %63 to i32
  call void @DES_ede3_cfb_encrypt(ptr noundef %45, ptr noundef %46, i32 noundef 1, i64 noundef 1, ptr noundef %49, ptr noundef %52, ptr noundef %55, ptr noundef %58, i32 noundef %64)
  %65 = load ptr, ptr %6, align 8, !tbaa !8
  %66 = load i64, ptr %10, align 8, !tbaa !10
  %67 = udiv i64 %66, 8
  %68 = getelementptr inbounds nuw i8, ptr %65, i64 %67
  %69 = load i8, ptr %68, align 1, !tbaa !23
  %70 = zext i8 %69 to i32
  %71 = load i64, ptr %10, align 8, !tbaa !10
  %72 = urem i64 %71, 8
  %73 = trunc i64 %72 to i32
  %74 = ashr i32 128, %73
  %75 = xor i32 %74, -1
  %76 = and i32 %70, %75
  %77 = getelementptr inbounds [1 x i8], ptr %12, i64 0, i64 0
  %78 = load i8, ptr %77, align 1, !tbaa !23
  %79 = zext i8 %78 to i32
  %80 = and i32 %79, 128
  %81 = load i64, ptr %10, align 8, !tbaa !10
  %82 = urem i64 %81, 8
  %83 = trunc i64 %82 to i32
  %84 = ashr i32 %80, %83
  %85 = or i32 %76, %84
  %86 = trunc i32 %85 to i8
  %87 = load ptr, ptr %6, align 8, !tbaa !8
  %88 = load i64, ptr %10, align 8, !tbaa !10
  %89 = udiv i64 %88, 8
  %90 = getelementptr inbounds nuw i8, ptr %87, i64 %89
  store i8 %86, ptr %90, align 1, !tbaa !23
  br label %91

91:                                               ; preds = %28
  %92 = load i64, ptr %10, align 8, !tbaa !10
  %93 = add i64 %92, 1
  store i64 %93, ptr %10, align 8, !tbaa !10
  br label %24, !llvm.loop !24

94:                                               ; preds = %24
  call void @llvm.lifetime.end.p0(i64 1, ptr %12) #5
  call void @llvm.lifetime.end.p0(i64 1, ptr %11) #5
  call void @llvm.lifetime.end.p0(i64 8, ptr %10) #5
  call void @llvm.lifetime.end.p0(i64 8, ptr %9) #5
  ret i32 1
}