; Function Attrs: nounwind uwtable
define internal noundef i32 @ossl_cipher_hw_tdes_cfb1(ptr noundef %0, ptr noundef captures(none) %1, ptr noundef readonly captures(none) %2, i64 noundef %3) #2 {
  %5 = alloca [1 x i8], align 1
  %6 = alloca [1 x i8], align 1
  call void @llvm.lifetime.start.p0(i64 1, ptr nonnull %5) #5
  call void @llvm.lifetime.start.p0(i64 1, ptr nonnull %6) #5
  store i8 0, ptr %6, align 1
  %7 = getelementptr inbounds nuw i8, ptr %0, i64 108
  %8 = load i8, ptr %7, align 4
  %9 = shl i64 %3, 3
  %10 = icmp slt i8 %8, 0
  %spec.select = select i1 %10, i64 %3, i64 %9
  %.not21 = icmp eq i64 %spec.select, 0
  br i1 %.not21, label %._crit_edge, label %.lr.ph

.lr.ph:                                           ; preds = %4
  %11 = getelementptr inbounds nuw i8, ptr %0, i64 192
  %12 = getelementptr inbounds nuw i8, ptr %0, i64 320
  %13 = getelementptr inbounds nuw i8, ptr %0, i64 448
  %14 = getelementptr inbounds nuw i8, ptr %0, i64 32
  br label %15

15:                                               ; preds = %.lr.ph, %15
  %.020 = phi i64 [ 0, %.lr.ph ], [ %41, %15 ]
  %16 = lshr i64 %.020, 3
  %17 = getelementptr inbounds nuw i8, ptr %2, i64 %16
  %18 = load i8, ptr %17, align 1, !tbaa !17
  %19 = zext i8 %18 to i32
  %20 = trunc i64 %.020 to i32
  %21 = and i32 %20, 7
  %22 = xor i32 %21, 7
  %23 = shl nuw nsw i32 1, %22
  %24 = and i32 %23, %19
  %.not = icmp eq i32 %24, 0
  %25 = select i1 %.not, i8 0, i8 -128
  store i8 %25, ptr %5, align 1, !tbaa !17
  %26 = load i8, ptr %7, align 4
  %27 = lshr i8 %26, 1
  %28 = and i8 %27, 1
  %29 = zext nneg i8 %28 to i32
  call void @DES_ede3_cfb_encrypt(ptr noundef nonnull %5, ptr noundef nonnull %6, i32 noundef 1, i64 noundef 1, ptr noundef nonnull %11, ptr noundef nonnull %12, ptr noundef nonnull %13, ptr noundef nonnull %14, i32 noundef %29) #5
  %30 = getelementptr inbounds nuw i8, ptr %1, i64 %16
  %31 = load i8, ptr %30, align 1, !tbaa !17
  %32 = zext i8 %31 to i32
  %33 = ashr i32 -129, %21
  %34 = and i32 %33, %32
  %35 = load i8, ptr %6, align 1, !tbaa !17
  %36 = and i8 %35, -128
  %37 = zext i8 %36 to i32
  %38 = lshr exact i32 %37, %21
  %39 = or i32 %38, %34
  %40 = trunc nuw i32 %39 to i8
  store i8 %40, ptr %30, align 1, !tbaa !17
  %41 = add nuw i64 %.020, 1
  %exitcond.not = icmp eq i64 %41, %spec.select
  br i1 %exitcond.not, label %._crit_edge, label %15, !llvm.loop !18

._crit_edge:                                      ; preds = %15, %4
  call void @llvm.lifetime.end.p0(i64 1, ptr nonnull %6) #5
  call void @llvm.lifetime.end.p0(i64 1, ptr nonnull %5) #5
  ret i32 1
}